target datalayout = "e-m:e-p270:32:32-p271:32:32-p272:64:64-i64:64-i128:128-f80:128-n8:16:32:64-S128"
target triple = "x86_64-pc-linux-gnu"

@loose_object_auto_limit = internal global i32 100, align 4

; Function Attrs: nounwind uwtable
define internal i32 @loose_object_count(ptr noundef %0, ptr noundef %1, ptr noundef %2) #0 {
  %4 = alloca i32, align 4
  %5 = alloca ptr, align 8
  %6 = alloca ptr, align 8
  %7 = alloca ptr, align 8
  %8 = alloca ptr, align 8
  %9 = alloca i32, align 4
  store ptr %0, ptr %5, align 8, !tbaa !187
  store ptr %1, ptr %6, align 8, !tbaa !11
  store ptr %2, ptr %7, align 8, !tbaa !54
  call void @llvm.lifetime.start.p0(i64 8, ptr %8) #11
  %10 = load ptr, ptr %7, align 8, !tbaa !54
  store ptr %10, ptr %8, align 8, !tbaa !104
  %11 = load ptr, ptr %8, align 8, !tbaa !104
  %12 = load i32, ptr %11, align 4, !tbaa !4
  %13 = add nsw i32 %12, 1
  store i32 %13, ptr %11, align 4, !tbaa !4
  %14 = load i32, ptr @loose_object_auto_limit, align 4, !tbaa !4
  %15 = icmp sge i32 %13, %14
  br i1 %15, label %16, label %17

16:                                               ; preds = %3
  store i32 1, ptr %4, align 4
  store i32 1, ptr %9, align 4
  br label %18

17:                                               ; preds = %3
  store i32 0, ptr %4, align 4
  store i32 1, ptr %9, align 4
  br label %18

18:                                               ; preds = %17, %16
  call void @llvm.lifetime.end.p0(i64 8, ptr %8) #11
  %19 = load i32, ptr %4, align 4
  ret i32 %19
}