; Function Attrs: mustprogress nofree norecurse nosync nounwind willreturn memory(read, argmem: readwrite, inaccessiblemem: none) uwtable
define internal range(i32 0, 2) i32 @loose_object_count(ptr readnone captures(none) %0, ptr readnone captures(none) %1, ptr noundef captures(none) %2) #15 {
  %4 = load i32, ptr %2, align 4, !tbaa !4
  %5 = add nsw i32 %4, 1
  store i32 %5, ptr %2, align 4, !tbaa !4
  %6 = load i32, ptr @loose_object_auto_limit, align 4, !tbaa !4
  %.not = icmp sge i32 %5, %6
  %. = zext i1 %.not to i32
  ret i32 %.
}